target datalayout = "e-m:e-p270:32:32-p271:32:32-p272:64:64-i64:64-i128:128-f80:128-n8:16:32:64-S128"
target triple = "x86_64-pc-linux-gnu"

%"union.absl::lts_20240722::internal_any_invocable::TypeErasedState" = type { %struct.anon }
%struct.anon = type { ptr, i64 }
%"class.grpc_core::(anonymous namespace)::TCPConnectHandshaker" = type { %"class.grpc_core::Handshaker", %"class.absl::lts_20240722::Mutex", i8, ptr, [8 x i8], %"class.absl::lts_20240722::AnyInvocable.75", ptr, %struct.grpc_polling_entity, ptr, i8, %struct.grpc_resolved_address, %struct.grpc_closure, [8 x i8] }
%"class.grpc_core::Handshaker" = type { %"class.grpc_core::RefCounted.74" }
%"class.grpc_core::RefCounted.74" = type { %"class.grpc_core::PolymorphicRefCount", %"class.grpc_core::RefCount" }
%"class.grpc_core::PolymorphicRefCount" = type { ptr }
%"class.grpc_core::RefCount" = type { %"struct.std::atomic" }
%"struct.std::atomic" = type { %"struct.std::__atomic_base" }
%"struct.std::__atomic_base" = type { i64 }
%"class.absl::lts_20240722::Mutex" = type { %"struct.std::atomic" }
%"class.absl::lts_20240722::AnyInvocable.75" = type { %"class.absl::lts_20240722::internal_any_invocable::Impl.76" }
%"class.absl::lts_20240722::internal_any_invocable::Impl.76" = type { %"class.absl::lts_20240722::internal_any_invocable::CoreImpl.77" }
%"class.absl::lts_20240722::internal_any_invocable::CoreImpl.77" = type { %"union.absl::lts_20240722::internal_any_invocable::TypeErasedState", ptr, ptr }
%struct.grpc_polling_entity = type <{ %union.anon.78, i32, [4 x i8] }>
%union.anon.78 = type { ptr }
%struct.grpc_resolved_address = type { [128 x i8], i32 }
%struct.grpc_closure = type { %union.anon.79, ptr, ptr, %union.anon.80 }
%union.anon.79 = type { ptr }
%union.anon.80 = type { i64 }

; Function Attrs: alwaysinline mustprogress nounwind uwtable
define linkonce_odr void @_ZN4absl12lts_202407225Mutex4DtorEv(ptr noundef nonnull align 8 dereferenceable(8) %0) #9 comdat align 2 {
  %2 = alloca ptr, align 8
  store ptr %0, ptr %2, align 8, !tbaa !110
  ret void
}

; Function Attrs: mustprogress nounwind uwtable
define linkonce_odr void @_ZN9grpc_core19PolymorphicRefCountD2Ev(ptr noundef nonnull align 8 dereferenceable(8) %0) unnamed_addr #5 comdat align 2 {
  %2 = alloca ptr, align 8
  store ptr %0, ptr %2, align 8, !tbaa !137
  ret void
}

; Function Attrs: alwaysinline mustprogress nounwind uwtable
define linkonce_odr void @_ZN4absl12lts_202407225MutexD2Ev(ptr noundef nonnull align 8 dereferenceable(8) %0) unnamed_addr #9 comdat align 2 personality ptr @__gxx_personality_v0 {
  %2 = alloca ptr, align 8
  store ptr %0, ptr %2, align 8, !tbaa !110
  %3 = load ptr, ptr %2, align 8
  invoke void @_ZN4absl12lts_202407225Mutex4DtorEv(ptr noundef nonnull align 8 dereferenceable(8) %3)
          to label %4 unwind label %5

4:                                                ; preds = %1
  ret void

5:                                                ; preds = %1
  %6 = landingpad { ptr, i32 }
          catch ptr null
  %7 = extractvalue { ptr, i32 } %6, 0
  call void @__clang_call_terminate(ptr %7) #23
  unreachable
}

; Function Attrs: mustprogress nounwind uwtable
define linkonce_odr void @_ZN4absl12lts_2024072222internal_any_invocable8CoreImplILb0EvJNS0_6StatusEEED2Ev(ptr noundef nonnull align 16 dereferenceable(32) %0) unnamed_addr #5 comdat align 2 {
  %2 = alloca ptr, align 8
  store ptr %0, ptr %2, align 8, !tbaa !127
  %3 = load ptr, ptr %2, align 8
  %4 = getelementptr inbounds nuw %"class.absl::lts_20240722::internal_any_invocable::CoreImpl.77", ptr %3, i32 0, i32 1
  %5 = load ptr, ptr %4, align 16, !tbaa !129
  %6 = getelementptr inbounds nuw %"class.absl::lts_20240722::internal_any_invocable::CoreImpl.77", ptr %3, i32 0, i32 0
  %7 = getelementptr inbounds nuw %"class.absl::lts_20240722::internal_any_invocable::CoreImpl.77", ptr %3, i32 0, i32 0
  call void %5(i1 noundef zeroext true, ptr noundef %6, ptr noundef %7) #3
  ret void
}

; Function Attrs: mustprogress nounwind uwtable
define internal void @_ZN9grpc_core12_GLOBAL__N_120TCPConnectHandshakerD2Ev(ptr noundef nonnull align 16 dereferenceable(280) %0) unnamed_addr #5 align 2 personality ptr @__gxx_personality_v0 {
  %2 = alloca ptr, align 8
  store ptr %0, ptr %2, align 8, !tbaa !84
  %3 = load ptr, ptr %2, align 8
  store ptr getelementptr inbounds inrange(-16, 40) ({ [7 x ptr] }, ptr @_ZTVN9grpc_core12_GLOBAL__N_120TCPConnectHandshakerE, i32 0, i32 0, i32 2), ptr %3, align 16, !tbaa !30
  %4 = getelementptr inbounds nuw %"class.grpc_core::(anonymous namespace)::TCPConnectHandshaker", ptr %3, i32 0, i32 3
  %5 = load ptr, ptr %4, align 16, !tbaa !105
  %6 = icmp ne ptr %5, null
  br i1 %6, label %7, label %11

7:                                                ; preds = %1
  %8 = getelementptr inbounds nuw %"class.grpc_core::(anonymous namespace)::TCPConnectHandshaker", ptr %3, i32 0, i32 3
  %9 = load ptr, ptr %8, align 16, !tbaa !105
  invoke void @_Z21grpc_endpoint_destroyP13grpc_endpoint(ptr noundef %9)
          to label %10 unwind label %17

10:                                               ; preds = %7
  br label %11

11:                                               ; preds = %10, %1
  %12 = getelementptr inbounds nuw %"class.grpc_core::(anonymous namespace)::TCPConnectHandshaker", ptr %3, i32 0, i32 6
  %13 = load ptr, ptr %12, align 16, !tbaa !106
  invoke void @_Z24grpc_pollset_set_destroyP16grpc_pollset_set(ptr noundef %13)
          to label %14 unwind label %17

14:                                               ; preds = %11
  %15 = getelementptr inbounds nuw %"class.grpc_core::(anonymous namespace)::TCPConnectHandshaker", ptr %3, i32 0, i32 5
  call void @_ZN4absl12lts_2024072222internal_any_invocable8CoreImplILb0EvJNS0_6StatusEEED2Ev(ptr noundef nonnull align 16 dereferenceable(32) %15) #3
  %16 = getelementptr inbounds nuw %"class.grpc_core::(anonymous namespace)::TCPConnectHandshaker", ptr %3, i32 0, i32 1
  call void @_ZN4absl12lts_202407225MutexD2Ev(ptr noundef nonnull align 8 dereferenceable(8) %16) #3
  call void @_ZN9grpc_core19PolymorphicRefCountD2Ev(ptr noundef nonnull align 8 dereferenceable(16) %3) #3
  ret void

17:                                               ; preds = %11, %7
  %18 = landingpad { ptr, i32 }
          catch ptr null
  %19 = extractvalue { ptr, i32 } %18, 0
  call void @__clang_call_terminate(ptr %19) #23
  unreachable
}